; Function Attrs: mustprogress uwtable
define noundef zeroext i1 @_ZN6icu_776number4impl10AffixUtils32containsOnlySymbolsAndIgnorablesERKNS_13UnicodeStringERKNS_10UnicodeSetER10UErrorCode(ptr noundef nonnull align 8 dereferenceable(64) %0, ptr noundef nonnull align 8 dereferenceable(200) %1, ptr noundef nonnull align 4 captures(none) dereferenceable(4) %2) local_unnamed_addr #3 align 2 {
  %4 = getelementptr inbounds nuw i8, ptr %0, i64 8
  %5 = load i16, ptr %4, align 8, !tbaa !3
  %6 = icmp slt i16 %5, 0
  %7 = ashr i16 %5, 5
  %8 = sext i16 %7 to i32
  %9 = getelementptr inbounds nuw i8, ptr %0, i64 12
  %10 = load i32, ptr %9, align 4
  %11 = select i1 %6, i32 %10, i32 %8
  %12 = icmp eq i32 %11, 0
  br i1 %12, label %_ZN6icu_776number4impl10AffixUtils7hasNextERKNS1_8AffixTagERKNS_13UnicodeStringE.exit.thread15, label %.preheader

.preheader:                                       ; preds = %3
  %13 = getelementptr inbounds nuw i8, ptr %0, i64 10
  %14 = getelementptr inbounds nuw i8, ptr %0, i64 24
  br label %15

15:                                               ; preds = %.preheader, %59
  %.sroa.0.0.extract.trunc19 = phi i32 [ 0, %.preheader ], [ %.sroa.0.0.extract.trunc, %59 ]
  %.sroa.0.018 = phi i64 [ 0, %.preheader ], [ %51, %59 ]
  %.sroa.7.017 = phi i64 [ 0, %.preheader ], [ %52, %59 ]
  %16 = icmp eq i32 %.sroa.0.0.extract.trunc19, 0
  br i1 %16, label %17, label %25

17:                                               ; preds = %15
  %18 = load i16, ptr %4, align 8, !tbaa !3
  %19 = icmp slt i16 %18, 0
  %20 = ashr i16 %18, 5
  %21 = sext i16 %20 to i32
  %22 = load i32, ptr %9, align 4
  %23 = select i1 %19, i32 %22, i32 %21
  %24 = icmp sgt i32 %23, 0
  br i1 %24, label %_ZN6icu_776number4impl10AffixUtils7hasNextERKNS1_8AffixTagERKNS_13UnicodeStringE.exit.thread, label %_ZN6icu_776number4impl10AffixUtils7hasNextERKNS1_8AffixTagERKNS_13UnicodeStringE.exit.thread15

25:                                               ; preds = %15
  %.sroa.7.8.extract.trunc = trunc i64 %.sroa.7.017 to i32
  switch i32 %.sroa.7.8.extract.trunc, label %_ZN6icu_776number4impl10AffixUtils7hasNextERKNS1_8AffixTagERKNS_13UnicodeStringE.exit.thread [
    i32 2, label %26
    i32 0, label %_ZN6icu_776number4impl10AffixUtils7hasNextERKNS1_8AffixTagERKNS_13UnicodeStringE.exit
  ]

26:                                               ; preds = %25
  %27 = load i16, ptr %4, align 8, !tbaa !3
  %28 = icmp slt i16 %27, 0
  %29 = ashr i16 %27, 5
  %30 = sext i16 %29 to i32
  %31 = load i32, ptr %9, align 4
  %32 = select i1 %28, i32 %31, i32 %30
  %33 = add nsw i32 %32, -1
  %34 = icmp eq i32 %33, %.sroa.0.0.extract.trunc19
  %35 = icmp ugt i32 %32, %.sroa.0.0.extract.trunc19
  %or.cond.i = and i1 %35, %34
  br i1 %or.cond.i, label %_ZNK6icu_7713UnicodeString6charAtEi.exit.i, label %_ZN6icu_776number4impl10AffixUtils7hasNextERKNS1_8AffixTagERKNS_13UnicodeStringE.exit.thread

_ZNK6icu_7713UnicodeString6charAtEi.exit.i:       ; preds = %26
  %36 = and i16 %27, 2
  %.not.i.i.i.i = icmp eq i16 %36, 0
  %37 = load ptr, ptr %14, align 8
  %38 = select i1 %.not.i.i.i.i, ptr %37, ptr %13
  %39 = and i64 %.sroa.0.018, 2147483647
  %40 = getelementptr inbounds nuw i16, ptr %38, i64 %39
  %41 = load i16, ptr %40, align 2, !tbaa !13
  %42 = icmp eq i16 %41, 39
  br i1 %42, label %_ZN6icu_776number4impl10AffixUtils7hasNextERKNS1_8AffixTagERKNS_13UnicodeStringE.exit.thread15, label %_ZN6icu_776number4impl10AffixUtils7hasNextERKNS1_8AffixTagERKNS_13UnicodeStringE.exit.thread

_ZN6icu_776number4impl10AffixUtils7hasNextERKNS1_8AffixTagERKNS_13UnicodeStringE.exit: ; preds = %25
  %43 = load i16, ptr %4, align 8, !tbaa !3
  %44 = icmp slt i16 %43, 0
  %45 = ashr i16 %43, 5
  %46 = sext i16 %45 to i32
  %47 = load i32, ptr %9, align 4
  %48 = select i1 %44, i32 %47, i32 %46
  %49 = icmp sgt i32 %48, %.sroa.0.0.extract.trunc19
  br i1 %49, label %_ZN6icu_776number4impl10AffixUtils7hasNextERKNS1_8AffixTagERKNS_13UnicodeStringE.exit.thread, label %_ZN6icu_776number4impl10AffixUtils7hasNextERKNS1_8AffixTagERKNS_13UnicodeStringE.exit.thread15

_ZN6icu_776number4impl10AffixUtils7hasNextERKNS1_8AffixTagERKNS_13UnicodeStringE.exit.thread: ; preds = %26, %_ZNK6icu_7713UnicodeString6charAtEi.exit.i, %25, %17, %_ZN6icu_776number4impl10AffixUtils7hasNextERKNS1_8AffixTagERKNS_13UnicodeStringE.exit
  %50 = tail call { i64, i64 } @_ZN6icu_776number4impl10AffixUtils9nextTokenENS1_8AffixTagERKNS_13UnicodeStringER10UErrorCode(i64 %.sroa.0.018, i64 %.sroa.7.017, ptr noundef nonnull align 8 dereferenceable(64) %0, ptr noundef nonnull align 4 dereferenceable(4) %2)
  %51 = extractvalue { i64, i64 } %50, 0
  %52 = extractvalue { i64, i64 } %50, 1
  %53 = load i32, ptr %2, align 4, !tbaa !8
  %54 = icmp slt i32 %53, 1
  br i1 %54, label %55, label %_ZN6icu_776number4impl10AffixUtils7hasNextERKNS1_8AffixTagERKNS_13UnicodeStringE.exit.thread15

55:                                               ; preds = %_ZN6icu_776number4impl10AffixUtils7hasNextERKNS1_8AffixTagERKNS_13UnicodeStringE.exit.thread
  %56 = icmp ult i64 %52, 4294967296
  br i1 %56, label %57, label %59

57:                                               ; preds = %55
  %.sroa.0.4.extract.shift = lshr i64 %51, 32
  %.sroa.0.4.extract.trunc = trunc nuw i64 %.sroa.0.4.extract.shift to i32
  %58 = tail call noundef signext i8 @_ZNK6icu_7710UnicodeSet8containsEi(ptr noundef nonnull align 8 dereferenceable(200) %1, i32 noundef %.sroa.0.4.extract.trunc)
  %.not8 = icmp eq i8 %58, 0
  br i1 %.not8, label %_ZN6icu_776number4impl10AffixUtils7hasNextERKNS1_8AffixTagERKNS_13UnicodeStringE.exit.thread15, label %59

59:                                               ; preds = %57, %55
  %.sroa.0.0.extract.trunc = trunc i64 %51 to i32
  %60 = icmp slt i32 %.sroa.0.0.extract.trunc, 0
  br i1 %60, label %_ZN6icu_776number4impl10AffixUtils7hasNextERKNS1_8AffixTagERKNS_13UnicodeStringE.exit.thread15, label %15, !llvm.loop !28

_ZN6icu_776number4impl10AffixUtils7hasNextERKNS1_8AffixTagERKNS_13UnicodeStringE.exit.thread15: ; preds = %_ZN6icu_776number4impl10AffixUtils7hasNextERKNS1_8AffixTagERKNS_13UnicodeStringE.exit.thread, %57, %_ZN6icu_776number4impl10AffixUtils7hasNextERKNS1_8AffixTagERKNS_13UnicodeStringE.exit, %17, %59, %_ZNK6icu_7713UnicodeString6charAtEi.exit.i, %3
  %.0 = phi i1 [ true, %3 ], [ true, %_ZNK6icu_7713UnicodeString6charAtEi.exit.i ], [ true, %59 ], [ true, %17 ], [ false, %_ZN6icu_776number4impl10AffixUtils7hasNextERKNS1_8AffixTagERKNS_13UnicodeStringE.exit.thread ], [ false, %57 ], [ true, %_ZN6icu_776number4impl10AffixUtils7hasNextERKNS1_8AffixTagERKNS_13UnicodeStringE.exit ]
  ret i1 %.0
}